; Function Attrs: nounwind uwtable
define ptr @l_List_partitionM_go___rarg___lambda__1___boxed(ptr noundef %0, ptr noundef %1, ptr noundef %2, ptr noundef %3, ptr noundef %4, ptr noundef %5, ptr noundef %6) #0 {
  %8 = ptrtoint ptr %6 to i64
  %9 = and i64 %8, 1
  %.not = icmp eq i64 %9, 0
  br i1 %.not, label %10, label %lean_dec.exit

10:                                               ; preds = %7
  %11 = load i32, ptr %6, align 4, !tbaa !4
  %12 = icmp sgt i32 %11, 1
  br i1 %12, label %13, label %15, !prof !9

13:                                               ; preds = %10
  %14 = add nsw i32 %11, -1
  store i32 %14, ptr %6, align 4, !tbaa !4
  br label %lean_dec.exit

15:                                               ; preds = %10
  %.not.i = icmp eq i32 %11, 0
  br i1 %.not.i, label %lean_dec.exit, label %16

16:                                               ; preds = %15
  tail call void @lean_dec_ref_cold(ptr noundef nonnull %6) #4
  br label %lean_dec.exit

lean_dec.exit:                                    ; preds = %16, %15, %13, %7
  %17 = and i64 %8, 510
  %18 = icmp eq i64 %17, 0
  br i1 %18, label %19, label %22

19:                                               ; preds = %lean_dec.exit
  %20 = tail call ptr @lean_array_push(ptr noundef %0, ptr noundef %1) #4
  %21 = tail call ptr @l_List_partitionM_go___rarg(ptr noundef %2, ptr noundef %3, ptr noundef %4, ptr noundef %5, ptr noundef %20)
  br label %l_List_partitionM_go___rarg___lambda__1.exit

22:                                               ; preds = %lean_dec.exit
  %23 = tail call ptr @lean_array_push(ptr noundef %5, ptr noundef %1) #4
  %24 = tail call ptr @l_List_partitionM_go___rarg(ptr noundef %2, ptr noundef %3, ptr noundef %4, ptr noundef %23, ptr noundef %0)
  br label %l_List_partitionM_go___rarg___lambda__1.exit

l_List_partitionM_go___rarg___lambda__1.exit:     ; preds = %19, %22
  %.0.i = phi ptr [ %21, %19 ], [ %24, %22 ]
  ret ptr %.0.i
}